target datalayout = "e-m:e-p270:32:32-p271:32:32-p272:64:64-i64:64-i128:128-f80:128-n8:16:32:64-S128"
target triple = "x86_64-pc-linux-gnu"

%struct._packet_info = type { ptr, ptr, i32, i32, %struct.nstime_t, %struct.nstime_t, %struct.nstime_t, i8, ptr, ptr, ptr, ptr, %struct._address, %struct._address, %struct._address, %struct._address, %struct._address, %struct._address, i32, ptr, i8, [3 x i8], %struct.anon, i32, i32, i32, i32, ptr, i8, ptr, ptr, i16, i16, i32, i32, i16, i32, i32, ptr, ptr, ptr, i8, i8, i16, i16, i16, i32, i16, i16, ptr, ptr, ptr, ptr, ptr, i32, i32 }
%struct.nstime_t = type { i64, i32 }
%struct._address = type { i32, i32, ptr, ptr }
%struct.anon = type { i8, [3 x i8] }

@hf_logcat_text_log = internal global i32 0, align 4

; Function Attrs: null_pointer_is_valid sspstrong uwtable
define internal i32 @get_log(ptr noundef %0, ptr noundef %1, ptr noundef %2, ptr noundef %3, i32 noundef %4, ptr noundef %5) #0 {
  %7 = alloca ptr, align 8
  %8 = alloca ptr, align 8
  %9 = alloca ptr, align 8
  %10 = alloca ptr, align 8
  %11 = alloca i32, align 4
  %12 = alloca ptr, align 8
  %13 = alloca ptr, align 8
  %14 = alloca i32, align 4
  store ptr %0, ptr %7, align 8
  store ptr %1, ptr %8, align 8
  store ptr %2, ptr %9, align 8
  store ptr %3, ptr %10, align 8
  store i32 %4, ptr %11, align 4
  store ptr %5, ptr %12, align 8
  call void @llvm.lifetime.start.p0(i64 8, ptr %13) #7
  %15 = load ptr, ptr %7, align 8
  %16 = load i32, ptr %11, align 4
  %17 = sext i32 %16 to i64
  %18 = getelementptr i8, ptr %15, i64 %17
  %19 = load ptr, ptr %8, align 8
  %20 = call ptr @g_strstr_len(ptr noundef %18, i64 noundef -1, ptr noundef %19)
  store ptr %20, ptr %13, align 8
  call void @llvm.lifetime.start.p0(i64 4, ptr %14) #7
  %21 = load ptr, ptr %13, align 8
  %22 = load ptr, ptr %7, align 8
  %23 = ptrtoint ptr %21 to i64
  %24 = ptrtoint ptr %22 to i64
  %25 = sub i64 %23, %24
  %26 = trunc i64 %25 to i32
  store i32 %26, ptr %14, align 4
  %27 = load ptr, ptr %10, align 8
  %28 = load i32, ptr @hf_logcat_text_log, align 4
  %29 = load ptr, ptr %9, align 8
  %30 = load i32, ptr %14, align 4
  %31 = load ptr, ptr %8, align 8
  %32 = call i64 @strlen(ptr noundef %31) #8
  %33 = trunc i64 %32 to i32
  %34 = load ptr, ptr %8, align 8
  %35 = call ptr @proto_tree_add_string(ptr noundef %27, i32 noundef %28, ptr noundef %29, i32 noundef %30, i32 noundef %33, ptr noundef %34)
  %36 = load ptr, ptr %12, align 8
  %37 = getelementptr inbounds nuw %struct._packet_info, ptr %36, i32 0, i32 1
  %38 = load ptr, ptr %37, align 8
  %39 = load ptr, ptr %8, align 8
  call void @col_add_str(ptr noundef %38, i32 noundef 25, ptr noundef %39)
  %40 = load i32, ptr %14, align 4
  %41 = load ptr, ptr %8, align 8
  %42 = call i64 @strlen(ptr noundef %41) #8
  %43 = trunc i64 %42 to i32
  %44 = add i32 %40, %43
  call void @llvm.lifetime.end.p0(i64 4, ptr %14) #7
  call void @llvm.lifetime.end.p0(i64 8, ptr %13) #7
  ret i32 %44
}