; Function Attrs: null_pointer_is_valid sspstrong uwtable
define internal i32 @get_log(ptr noundef %0, ptr noundef %1, ptr noundef %2, ptr noundef %3, i32 noundef %4, ptr noundef readonly captures(none) %5) #0 {
  %7 = sext i32 %4 to i64
  %8 = getelementptr i8, ptr %0, i64 %7
  %9 = tail call ptr @g_strstr_len(ptr noundef %8, i64 noundef -1, ptr noundef %1)
  %10 = ptrtoint ptr %9 to i64
  %11 = ptrtoint ptr %0 to i64
  %12 = sub i64 %10, %11
  %13 = trunc i64 %12 to i32
  %14 = load i32, ptr @hf_logcat_text_log, align 4
  %15 = tail call i64 @strlen(ptr noundef %1) #6
  %16 = trunc i64 %15 to i32
  %17 = tail call ptr @proto_tree_add_string(ptr noundef %3, i32 noundef %14, ptr noundef %2, i32 noundef %13, i32 noundef %16, ptr noundef %1)
  %18 = getelementptr inbounds nuw i8, ptr %5, i64 8
  %19 = load ptr, ptr %18, align 8
  tail call void @col_add_str(ptr noundef %19, i32 noundef 25, ptr noundef %1)
  %20 = tail call i64 @strlen(ptr noundef %1) #6
  %21 = trunc i64 %20 to i32
  %22 = add i32 %21, %13
  ret i32 %22
}